target datalayout = "e-m:e-p270:32:32-p271:32:32-p272:64:64-i64:64-i128:128-f80:128-n8:16:32:64-S128"
target triple = "x86_64-pc-linux-gnu"

@reached_main = internal global i8 0, align 1
@.str.2 = private unnamed_addr constant [1 x i8] zeroinitializer, align 1
@.str.17 = private unnamed_addr constant [14 x i8] c"UBSAN_OPTIONS\00", align 1

; Function Attrs: nounwind uwtable
define dso_local ptr @__ubsan_default_options() #0 {
  %1 = alloca ptr, align 8
  %2 = load i8, ptr @reached_main, align 1, !range !4, !noundef !5
  %3 = trunc i8 %2 to i1
  br i1 %3, label %5, label %4

4:                                                ; preds = %0
  store ptr @.str.2, ptr %1, align 8
  br label %7

5:                                                ; preds = %0
  %6 = call ptr @getenv(ptr noundef @.str.17) #8
  store ptr %6, ptr %1, align 8
  br label %7

7:                                                ; preds = %5, %4
  %8 = load ptr, ptr %1, align 8
  ret ptr %8
}