; Function Attrs: nofree nounwind memory(read) uwtable
define dso_local noundef ptr @__ubsan_default_options() local_unnamed_addr #11 {
  %.b1 = load i1, ptr @reached_main, align 1
  br i1 %.b1, label %1, label %3

1:                                                ; preds = %0
  %2 = tail call ptr @getenv(ptr noundef nonnull @.str.17) #16
  br label %3

3:                                                ; preds = %0, %1
  %.0 = phi ptr [ %2, %1 ], [ @.str.2, %0 ]
  ret ptr %.0
}